target datalayout = "e-m:e-p270:32:32-p271:32:32-p272:64:64-i64:64-i128:128-f80:128-n8:16:32:64-S128"
target triple = "x86_64-pc-linux-gnu"

%"class.glslang::TOutputTraverser" = type <{ %"class.glslang::TIntermTraverser", ptr, i32, [4 x i8] }>
%"class.glslang::TIntermTraverser" = type { ptr, i8, i8, i8, i8, i32, i32, %"class.glslang::TVector" }
%"class.glslang::TVector" = type { %"class.std::vector" }
%"class.std::vector" = type { %"struct.std::_Vector_base" }
%"struct.std::_Vector_base" = type { %"struct.std::_Vector_base<TIntermNode *, glslang::pool_allocator<TIntermNode *>>::_Vector_impl" }
%"struct.std::_Vector_base<TIntermNode *, glslang::pool_allocator<TIntermNode *>>::_Vector_impl" = type { %"class.glslang::pool_allocator", %"struct.std::_Vector_base<TIntermNode *, glslang::pool_allocator<TIntermNode *>>::_Vector_impl_data" }
%"class.glslang::pool_allocator" = type { ptr }
%"struct.std::_Vector_base<TIntermNode *, glslang::pool_allocator<TIntermNode *>>::_Vector_impl_data" = type { ptr, ptr, ptr }
%class.TInfoSink = type { %"class.glslang::TInfoSinkBase", %"class.glslang::TInfoSinkBase" }
%"class.glslang::TInfoSinkBase" = type { %"class.std::__cxx11::basic_string", i32, ptr }
%"class.std::__cxx11::basic_string" = type { %"struct.std::__cxx11::basic_string<char>::_Alloc_hider", i64, %union.anon }
%"struct.std::__cxx11::basic_string<char>::_Alloc_hider" = type { ptr }
%union.anon = type { i64, [8 x i8] }
%"struct.glslang::TSourceLoc" = type { ptr, i32, i32, i32 }
%class.TIntermNode = type { ptr, %"struct.glslang::TSourceLoc" }
%"class.glslang::TIntermSwitch" = type <{ %class.TIntermNode, ptr, ptr, i8, i8, [6 x i8] }>

@.str.54 = private unnamed_addr constant [2 x i8] c"\0A\00", align 1
@.str.764 = private unnamed_addr constant [10 x i8] c": Flatten\00", align 1
@.str.765 = private unnamed_addr constant [14 x i8] c": DontFlatten\00", align 1
@.str.797 = private unnamed_addr constant [7 x i8] c"switch\00", align 1
@.str.798 = private unnamed_addr constant [11 x i8] c"condition\0A\00", align 1
@.str.799 = private unnamed_addr constant [6 x i8] c"body\0A\00", align 1

; Function Attrs: mustprogress nounwind uwtable
define linkonce_odr noundef zeroext i1 @_ZNK7glslang13TIntermSwitch14getDontFlattenEv(ptr noundef nonnull align 8 dereferenceable(50) %0) #0 comdat align 2 {
  %2 = alloca ptr, align 8
  store ptr %0, ptr %2, align 8
  %3 = load ptr, ptr %2, align 8
  %4 = getelementptr inbounds %"class.glslang::TIntermSwitch", ptr %3, i32 0, i32 4
  %5 = load i8, ptr %4, align 1
  %6 = trunc i8 %5 to i1
  ret i1 %6
}

; Function Attrs: mustprogress nounwind uwtable
define linkonce_odr noundef zeroext i1 @_ZNK7glslang13TIntermSwitch10getFlattenEv(ptr noundef nonnull align 8 dereferenceable(50) %0) #0 comdat align 2 {
  %2 = alloca ptr, align 8
  store ptr %0, ptr %2, align 8
  %3 = load ptr, ptr %2, align 8
  %4 = getelementptr inbounds %"class.glslang::TIntermSwitch", ptr %3, i32 0, i32 3
  %5 = load i8, ptr %4, align 8
  %6 = trunc i8 %5 to i1
  ret i1 %6
}

; Function Attrs: mustprogress nounwind uwtable
define linkonce_odr noundef nonnull align 8 dereferenceable(48) ptr @_ZN7glslang13TInfoSinkBaselsEPKc(ptr noundef nonnull align 8 dereferenceable(48) %0, ptr noundef %1) #0 comdat align 2 {
  %3 = alloca ptr, align 8
  %4 = alloca ptr, align 8
  store ptr %0, ptr %3, align 8
  store ptr %1, ptr %4, align 8
  %5 = load ptr, ptr %3, align 8
  %6 = load ptr, ptr %4, align 8
  call void @_ZN7glslang13TInfoSinkBase6appendEPKc(ptr noundef nonnull align 8 dereferenceable(48) %5, ptr noundef %6)
  ret ptr %5
}

; Function Attrs: mustprogress nounwind uwtable
define noundef zeroext i1 @_ZN7glslang16TOutputTraverser11visitSwitchENS_6TVisitEPNS_13TIntermSwitchE(ptr noundef nonnull align 8 dereferenceable(68) %0, i32 noundef %1, ptr noundef %2) unnamed_addr #0 align 2 {
  %4 = alloca ptr, align 8
  %5 = alloca i32, align 4
  %6 = alloca ptr, align 8
  %7 = alloca ptr, align 8
  store ptr %0, ptr %4, align 8
  store i32 %1, ptr %5, align 4
  store ptr %2, ptr %6, align 8
  %8 = load ptr, ptr %4, align 8
  %9 = getelementptr inbounds %"class.glslang::TOutputTraverser", ptr %8, i32 0, i32 1
  %10 = load ptr, ptr %9, align 8
  store ptr %10, ptr %7, align 8
  %11 = load ptr, ptr %7, align 8
  %12 = load ptr, ptr %6, align 8
  %13 = getelementptr inbounds %"class.glslang::TIntermTraverser", ptr %8, i32 0, i32 5
  %14 = load i32, ptr %13, align 4
  call void @_ZN7glslangL14OutputTreeTextER9TInfoSinkPK11TIntermNodei(ptr noundef nonnull align 8 dereferenceable(96) %11, ptr noundef %12, i32 noundef %14)
  %15 = load ptr, ptr %7, align 8
  %16 = getelementptr inbounds %class.TInfoSink, ptr %15, i32 0, i32 1
  %17 = call noundef nonnull align 8 dereferenceable(48) ptr @_ZN7glslang13TInfoSinkBaselsEPKc(ptr noundef nonnull align 8 dereferenceable(48) %16, ptr noundef @.str.797)
  %18 = load ptr, ptr %6, align 8
  %19 = call noundef zeroext i1 @_ZNK7glslang13TIntermSwitch10getFlattenEv(ptr noundef nonnull align 8 dereferenceable(50) %18)
  br i1 %19, label %20, label %24

20:                                               ; preds = %3
  %21 = load ptr, ptr %7, align 8
  %22 = getelementptr inbounds %class.TInfoSink, ptr %21, i32 0, i32 1
  %23 = call noundef nonnull align 8 dereferenceable(48) ptr @_ZN7glslang13TInfoSinkBaselsEPKc(ptr noundef nonnull align 8 dereferenceable(48) %22, ptr noundef @.str.764)
  br label %24

24:                                               ; preds = %20, %3
  %25 = load ptr, ptr %6, align 8
  %26 = call noundef zeroext i1 @_ZNK7glslang13TIntermSwitch14getDontFlattenEv(ptr noundef nonnull align 8 dereferenceable(50) %25)
  br i1 %26, label %27, label %31

27:                                               ; preds = %24
  %28 = load ptr, ptr %7, align 8
  %29 = getelementptr inbounds %class.TInfoSink, ptr %28, i32 0, i32 1
  %30 = call noundef nonnull align 8 dereferenceable(48) ptr @_ZN7glslang13TInfoSinkBaselsEPKc(ptr noundef nonnull align 8 dereferenceable(48) %29, ptr noundef @.str.765)
  br label %31

31:                                               ; preds = %27, %24
  %32 = load ptr, ptr %7, align 8
  %33 = getelementptr inbounds %class.TInfoSink, ptr %32, i32 0, i32 1
  %34 = call noundef nonnull align 8 dereferenceable(48) ptr @_ZN7glslang13TInfoSinkBaselsEPKc(ptr noundef nonnull align 8 dereferenceable(48) %33, ptr noundef @.str.54)
  %35 = load ptr, ptr %7, align 8
  %36 = load ptr, ptr %6, align 8
  %37 = getelementptr inbounds %"class.glslang::TIntermTraverser", ptr %8, i32 0, i32 5
  %38 = load i32, ptr %37, align 4
  call void @_ZN7glslangL14OutputTreeTextER9TInfoSinkPK11TIntermNodei(ptr noundef nonnull align 8 dereferenceable(96) %35, ptr noundef %36, i32 noundef %38)
  %39 = load ptr, ptr %7, align 8
  %40 = getelementptr inbounds %class.TInfoSink, ptr %39, i32 0, i32 1
  %41 = call noundef nonnull align 8 dereferenceable(48) ptr @_ZN7glslang13TInfoSinkBaselsEPKc(ptr noundef nonnull align 8 dereferenceable(48) %40, ptr noundef @.str.798)
  %42 = getelementptr inbounds %"class.glslang::TIntermTraverser", ptr %8, i32 0, i32 5
  %43 = load i32, ptr %42, align 4
  %44 = add nsw i32 %43, 1
  store i32 %44, ptr %42, align 4
  %45 = load ptr, ptr %6, align 8
  %46 = load ptr, ptr %45, align 8
  %47 = getelementptr inbounds ptr, ptr %46, i64 29
  %48 = load ptr, ptr %47, align 8
  %49 = call noundef ptr %48(ptr noundef nonnull align 8 dereferenceable(50) %45)
  %50 = load ptr, ptr %49, align 8
  %51 = getelementptr inbounds ptr, ptr %50, i64 2
  %52 = load ptr, ptr %51, align 8
  call void %52(ptr noundef nonnull align 8 dereferenceable(32) %49, ptr noundef %8)
  %53 = getelementptr inbounds %"class.glslang::TIntermTraverser", ptr %8, i32 0, i32 5
  %54 = load i32, ptr %53, align 4
  %55 = add nsw i32 %54, -1
  store i32 %55, ptr %53, align 4
  %56 = load ptr, ptr %7, align 8
  %57 = load ptr, ptr %6, align 8
  %58 = getelementptr inbounds %"class.glslang::TIntermTraverser", ptr %8, i32 0, i32 5
  %59 = load i32, ptr %58, align 4
  call void @_ZN7glslangL14OutputTreeTextER9TInfoSinkPK11TIntermNodei(ptr noundef nonnull align 8 dereferenceable(96) %56, ptr noundef %57, i32 noundef %59)
  %60 = load ptr, ptr %7, align 8
  %61 = getelementptr inbounds %class.TInfoSink, ptr %60, i32 0, i32 1
  %62 = call noundef nonnull align 8 dereferenceable(48) ptr @_ZN7glslang13TInfoSinkBaselsEPKc(ptr noundef nonnull align 8 dereferenceable(48) %61, ptr noundef @.str.799)
  %63 = getelementptr inbounds %"class.glslang::TIntermTraverser", ptr %8, i32 0, i32 5
  %64 = load i32, ptr %63, align 4
  %65 = add nsw i32 %64, 1
  store i32 %65, ptr %63, align 4
  %66 = load ptr, ptr %6, align 8
  %67 = load ptr, ptr %66, align 8
  %68 = getelementptr inbounds ptr, ptr %67, i64 30
  %69 = load ptr, ptr %68, align 8
  %70 = call noundef ptr %69(ptr noundef nonnull align 8 dereferenceable(50) %66)
  %71 = load ptr, ptr %70, align 8
  %72 = getelementptr inbounds ptr, ptr %71, i64 2
  %73 = load ptr, ptr %72, align 8
  call void %73(ptr noundef nonnull align 8 dereferenceable(364) %70, ptr noundef %8)
  %74 = getelementptr inbounds %"class.glslang::TIntermTraverser", ptr %8, i32 0, i32 5
  %75 = load i32, ptr %74, align 4
  %76 = add nsw i32 %75, -1
  store i32 %76, ptr %74, align 4
  ret i1 false
}