; Function Attrs: mustprogress nounwind uwtable
define noundef zeroext i1 @_ZN7glslang16TOutputTraverser11visitSwitchENS_6TVisitEPNS_13TIntermSwitchE(ptr noundef nonnull align 8 dereferenceable(68) %0, i32 %1, ptr noundef %2) unnamed_addr #0 align 2 {
  %4 = getelementptr inbounds nuw i8, ptr %0, i64 56
  %5 = load ptr, ptr %4, align 8
  %6 = getelementptr inbounds nuw i8, ptr %0, i64 12
  %7 = load i32, ptr %6, align 4
  tail call fastcc void @_ZN7glslangL14OutputTreeTextER9TInfoSinkPK11TIntermNodei(ptr noundef nonnull align 8 dereferenceable(96) %5, ptr noundef %2, i32 noundef %7)
  %8 = getelementptr inbounds nuw i8, ptr %5, i64 48
  tail call void @_ZN7glslang13TInfoSinkBase6appendEPKc(ptr noundef nonnull align 8 dereferenceable(48) %8, ptr noundef nonnull @.str.797) #14
  %9 = getelementptr inbounds nuw i8, ptr %2, i64 48
  %10 = load i8, ptr %9, align 8
  %11 = trunc i8 %10 to i1
  br i1 %11, label %12, label %13

12:                                               ; preds = %3
  tail call void @_ZN7glslang13TInfoSinkBase6appendEPKc(ptr noundef nonnull align 8 dereferenceable(48) %8, ptr noundef nonnull @.str.764) #14
  br label %13

13:                                               ; preds = %12, %3
  %14 = getelementptr inbounds nuw i8, ptr %2, i64 49
  %15 = load i8, ptr %14, align 1
  %16 = trunc i8 %15 to i1
  br i1 %16, label %17, label %18

17:                                               ; preds = %13
  tail call void @_ZN7glslang13TInfoSinkBase6appendEPKc(ptr noundef nonnull align 8 dereferenceable(48) %8, ptr noundef nonnull @.str.765) #14
  br label %18

18:                                               ; preds = %17, %13
  tail call void @_ZN7glslang13TInfoSinkBase6appendEPKc(ptr noundef nonnull align 8 dereferenceable(48) %8, ptr noundef nonnull @.str.54) #14
  %19 = load i32, ptr %6, align 4
  tail call fastcc void @_ZN7glslangL14OutputTreeTextER9TInfoSinkPK11TIntermNodei(ptr noundef nonnull align 8 dereferenceable(96) %5, ptr noundef nonnull %2, i32 noundef %19)
  tail call void @_ZN7glslang13TInfoSinkBase6appendEPKc(ptr noundef nonnull align 8 dereferenceable(48) %8, ptr noundef nonnull @.str.798) #14
  %20 = load i32, ptr %6, align 4
  %21 = add nsw i32 %20, 1
  store i32 %21, ptr %6, align 4
  %22 = load ptr, ptr %2, align 8
  %23 = getelementptr inbounds nuw i8, ptr %22, i64 232
  %24 = load ptr, ptr %23, align 8
  %25 = tail call noundef ptr %24(ptr noundef nonnull align 8 dereferenceable(50) %2) #14
  %26 = load ptr, ptr %25, align 8
  %27 = getelementptr inbounds nuw i8, ptr %26, i64 16
  %28 = load ptr, ptr %27, align 8
  tail call void %28(ptr noundef nonnull align 8 dereferenceable(32) %25, ptr noundef nonnull %0) #14
  %29 = load i32, ptr %6, align 4
  %30 = add nsw i32 %29, -1
  store i32 %30, ptr %6, align 4
  tail call fastcc void @_ZN7glslangL14OutputTreeTextER9TInfoSinkPK11TIntermNodei(ptr noundef nonnull align 8 dereferenceable(96) %5, ptr noundef nonnull %2, i32 noundef %30)
  tail call void @_ZN7glslang13TInfoSinkBase6appendEPKc(ptr noundef nonnull align 8 dereferenceable(48) %8, ptr noundef nonnull @.str.799) #14
  %31 = load i32, ptr %6, align 4
  %32 = add nsw i32 %31, 1
  store i32 %32, ptr %6, align 4
  %33 = load ptr, ptr %2, align 8
  %34 = getelementptr inbounds nuw i8, ptr %33, i64 240
  %35 = load ptr, ptr %34, align 8
  %36 = tail call noundef ptr %35(ptr noundef nonnull align 8 dereferenceable(50) %2) #14
  %37 = load ptr, ptr %36, align 8
  %38 = getelementptr inbounds nuw i8, ptr %37, i64 16
  %39 = load ptr, ptr %38, align 8
  tail call void %39(ptr noundef nonnull align 8 dereferenceable(364) %36, ptr noundef nonnull %0) #14
  %40 = load i32, ptr %6, align 4
  %41 = add nsw i32 %40, -1
  store i32 %41, ptr %6, align 4
  ret i1 false
}